target datalayout = "e-m:e-p270:32:32-p271:32:32-p272:64:64-i64:64-i128:128-f80:128-n8:16:32:64-S128"
target triple = "x86_64-pc-linux-gnu"

@.str = private unnamed_addr constant [14 x i8] c"out of memory\00", align 1
@.str.1 = private unnamed_addr constant [13 x i8] c"syntax error\00", align 1
@.str.2 = private unnamed_addr constant [17 x i8] c"no element found\00", align 1
@.str.3 = private unnamed_addr constant [32 x i8] c"not well-formed (invalid token)\00", align 1
@.str.4 = private unnamed_addr constant [15 x i8] c"unclosed token\00", align 1
@.str.5 = private unnamed_addr constant [18 x i8] c"partial character\00", align 1
@.str.6 = private unnamed_addr constant [15 x i8] c"mismatched tag\00", align 1
@.str.7 = private unnamed_addr constant [20 x i8] c"duplicate attribute\00", align 1
@.str.8 = private unnamed_addr constant [28 x i8] c"junk after document element\00", align 1
@.str.9 = private unnamed_addr constant [35 x i8] c"illegal parameter entity reference\00", align 1
@.str.10 = private unnamed_addr constant [17 x i8] c"undefined entity\00", align 1
@.str.11 = private unnamed_addr constant [27 x i8] c"recursive entity reference\00", align 1
@.str.12 = private unnamed_addr constant [20 x i8] c"asynchronous entity\00", align 1
@.str.13 = private unnamed_addr constant [38 x i8] c"reference to invalid character number\00", align 1
@.str.14 = private unnamed_addr constant [27 x i8] c"reference to binary entity\00", align 1
@.str.15 = private unnamed_addr constant [42 x i8] c"reference to external entity in attribute\00", align 1
@.str.16 = private unnamed_addr constant [47 x i8] c"XML or text declaration not at start of entity\00", align 1
@.str.17 = private unnamed_addr constant [17 x i8] c"unknown encoding\00", align 1
@.str.18 = private unnamed_addr constant [51 x i8] c"encoding specified in XML declaration is incorrect\00", align 1
@.str.19 = private unnamed_addr constant [23 x i8] c"unclosed CDATA section\00", align 1
@.str.20 = private unnamed_addr constant [46 x i8] c"error in processing external entity reference\00", align 1
@.str.21 = private unnamed_addr constant [27 x i8] c"document is not standalone\00", align 1
@.str.22 = private unnamed_addr constant [51 x i8] c"unexpected parser state - please send a bug report\00", align 1
@.str.23 = private unnamed_addr constant [36 x i8] c"entity declared in parameter entity\00", align 1
@.str.24 = private unnamed_addr constant [52 x i8] c"requested feature requires XML_DTD support in Expat\00", align 1
@.str.25 = private unnamed_addr constant [45 x i8] c"cannot change setting once parsing has begun\00", align 1
@.str.26 = private unnamed_addr constant [15 x i8] c"unbound prefix\00", align 1
@.str.27 = private unnamed_addr constant [26 x i8] c"must not undeclare prefix\00", align 1
@.str.28 = private unnamed_addr constant [38 x i8] c"incomplete markup in parameter entity\00", align 1
@.str.29 = private unnamed_addr constant [32 x i8] c"XML declaration not well-formed\00", align 1
@.str.30 = private unnamed_addr constant [33 x i8] c"text declaration not well-formed\00", align 1
@.str.31 = private unnamed_addr constant [34 x i8] c"illegal character(s) in public id\00", align 1
@.str.32 = private unnamed_addr constant [17 x i8] c"parser suspended\00", align 1
@.str.33 = private unnamed_addr constant [21 x i8] c"parser not suspended\00", align 1
@.str.34 = private unnamed_addr constant [16 x i8] c"parsing aborted\00", align 1
@.str.35 = private unnamed_addr constant [17 x i8] c"parsing finished\00", align 1
@.str.36 = private unnamed_addr constant [44 x i8] c"cannot suspend in external parameter entity\00", align 1
@.str.37 = private unnamed_addr constant [80 x i8] c"reserved prefix (xml) must not be undeclared or bound to another namespace name\00", align 1
@.str.38 = private unnamed_addr constant [59 x i8] c"reserved prefix (xmlns) must not be declared or undeclared\00", align 1
@.str.39 = private unnamed_addr constant [64 x i8] c"prefix must not be bound to one of the reserved namespace names\00", align 1
@.str.40 = private unnamed_addr constant [17 x i8] c"invalid argument\00", align 1
@.str.41 = private unnamed_addr constant [62 x i8] c"a successful prior call to function XML_GetBuffer is required\00", align 1
@.str.42 = private unnamed_addr constant [69 x i8] c"limit on input amplification factor (from DTD and entities) breached\00", align 1
@.str.43 = private unnamed_addr constant [19 x i8] c"parser not started\00", align 1

; Function Attrs: nounwind uwtable
define hidden ptr @PyExpat_XML_ErrorString(i32 noundef %0) #0 {
  %2 = alloca ptr, align 8
  %3 = alloca i32, align 4
  store i32 %0, ptr %3, align 4, !tbaa !174
  %4 = load i32, ptr %3, align 4, !tbaa !174
  switch i32 %4, label %50 [
    i32 0, label %5
    i32 1, label %6
    i32 2, label %7
    i32 3, label %8
    i32 4, label %9
    i32 5, label %10
    i32 6, label %11
    i32 7, label %12
    i32 8, label %13
    i32 9, label %14
    i32 10, label %15
    i32 11, label %16
    i32 12, label %17
    i32 13, label %18
    i32 14, label %19
    i32 15, label %20
    i32 16, label %21
    i32 17, label %22
    i32 18, label %23
    i32 19, label %24
    i32 20, label %25
    i32 21, label %26
    i32 22, label %27
    i32 23, label %28
    i32 24, label %29
    i32 25, label %30
    i32 26, label %31
    i32 27, label %32
    i32 28, label %33
    i32 29, label %34
    i32 30, label %35
    i32 31, label %36
    i32 32, label %37
    i32 33, label %38
    i32 34, label %39
    i32 35, label %40
    i32 36, label %41
    i32 37, label %42
    i32 38, label %43
    i32 39, label %44
    i32 40, label %45
    i32 41, label %46
    i32 42, label %47
    i32 43, label %48
    i32 44, label %49
  ]

5:                                                ; preds = %1
  store ptr null, ptr %2, align 8
  br label %51

6:                                                ; preds = %1
  store ptr @.str, ptr %2, align 8
  br label %51

7:                                                ; preds = %1
  store ptr @.str.1, ptr %2, align 8
  br label %51

8:                                                ; preds = %1
  store ptr @.str.2, ptr %2, align 8
  br label %51

9:                                                ; preds = %1
  store ptr @.str.3, ptr %2, align 8
  br label %51

10:                                               ; preds = %1
  store ptr @.str.4, ptr %2, align 8
  br label %51

11:                                               ; preds = %1
  store ptr @.str.5, ptr %2, align 8
  br label %51

12:                                               ; preds = %1
  store ptr @.str.6, ptr %2, align 8
  br label %51

13:                                               ; preds = %1
  store ptr @.str.7, ptr %2, align 8
  br label %51

14:                                               ; preds = %1
  store ptr @.str.8, ptr %2, align 8
  br label %51

15:                                               ; preds = %1
  store ptr @.str.9, ptr %2, align 8
  br label %51

16:                                               ; preds = %1
  store ptr @.str.10, ptr %2, align 8
  br label %51

17:                                               ; preds = %1
  store ptr @.str.11, ptr %2, align 8
  br label %51

18:                                               ; preds = %1
  store ptr @.str.12, ptr %2, align 8
  br label %51

19:                                               ; preds = %1
  store ptr @.str.13, ptr %2, align 8
  br label %51

20:                                               ; preds = %1
  store ptr @.str.14, ptr %2, align 8
  br label %51

21:                                               ; preds = %1
  store ptr @.str.15, ptr %2, align 8
  br label %51

22:                                               ; preds = %1
  store ptr @.str.16, ptr %2, align 8
  br label %51

23:                                               ; preds = %1
  store ptr @.str.17, ptr %2, align 8
  br label %51

24:                                               ; preds = %1
  store ptr @.str.18, ptr %2, align 8
  br label %51

25:                                               ; preds = %1
  store ptr @.str.19, ptr %2, align 8
  br label %51

26:                                               ; preds = %1
  store ptr @.str.20, ptr %2, align 8
  br label %51

27:                                               ; preds = %1
  store ptr @.str.21, ptr %2, align 8
  br label %51

28:                                               ; preds = %1
  store ptr @.str.22, ptr %2, align 8
  br label %51

29:                                               ; preds = %1
  store ptr @.str.23, ptr %2, align 8
  br label %51

30:                                               ; preds = %1
  store ptr @.str.24, ptr %2, align 8
  br label %51

31:                                               ; preds = %1
  store ptr @.str.25, ptr %2, align 8
  br label %51

32:                                               ; preds = %1
  store ptr @.str.26, ptr %2, align 8
  br label %51

33:                                               ; preds = %1
  store ptr @.str.27, ptr %2, align 8
  br label %51

34:                                               ; preds = %1
  store ptr @.str.28, ptr %2, align 8
  br label %51

35:                                               ; preds = %1
  store ptr @.str.29, ptr %2, align 8
  br label %51

36:                                               ; preds = %1
  store ptr @.str.30, ptr %2, align 8
  br label %51

37:                                               ; preds = %1
  store ptr @.str.31, ptr %2, align 8
  br label %51

38:                                               ; preds = %1
  store ptr @.str.32, ptr %2, align 8
  br label %51

39:                                               ; preds = %1
  store ptr @.str.33, ptr %2, align 8
  br label %51

40:                                               ; preds = %1
  store ptr @.str.34, ptr %2, align 8
  br label %51

41:                                               ; preds = %1
  store ptr @.str.35, ptr %2, align 8
  br label %51

42:                                               ; preds = %1
  store ptr @.str.36, ptr %2, align 8
  br label %51

43:                                               ; preds = %1
  store ptr @.str.37, ptr %2, align 8
  br label %51

44:                                               ; preds = %1
  store ptr @.str.38, ptr %2, align 8
  br label %51

45:                                               ; preds = %1
  store ptr @.str.39, ptr %2, align 8
  br label %51

46:                                               ; preds = %1
  store ptr @.str.40, ptr %2, align 8
  br label %51

47:                                               ; preds = %1
  store ptr @.str.41, ptr %2, align 8
  br label %51

48:                                               ; preds = %1
  store ptr @.str.42, ptr %2, align 8
  br label %51

49:                                               ; preds = %1
  store ptr @.str.43, ptr %2, align 8
  br label %51

50:                                               ; preds = %1
  store ptr null, ptr %2, align 8
  br label %51

51:                                               ; preds = %50, %49, %48, %47, %46, %45, %44, %43, %42, %41, %40, %39, %38, %37, %36, %35, %34, %33, %32, %31, %30, %29, %28, %27, %26, %25, %24, %23, %22, %21, %20, %19, %18, %17, %16, %15, %14, %13, %12, %11, %10, %9, %8, %7, %6, %5
  %52 = load ptr, ptr %2, align 8
  ret ptr %52
}